target datalayout = "e-m:e-p270:32:32-p271:32:32-p272:64:64-i64:64-i128:128-f80:128-n8:16:32:64-S128"
target triple = "x86_64-pc-linux-gnu"

@hf_value_length = internal global i32 0, align 4
@hf_status = internal global i32 0, align 4
@hf_value = internal global i32 0, align 4
@hf_multipath_index = internal global i32 0, align 4
@ett_multipath = internal global i32 0, align 4
@json_handle = internal global ptr null, align 8
@.str.810 = private unnamed_addr constant [23 x i8] c"Mutation Result [ %u ]\00", align 1

; Function Attrs: null_pointer_is_valid sspstrong uwtable
define internal void @dissect_multipath_mutation_response(ptr noundef %0, ptr noundef %1, ptr noundef %2, i32 noundef %3, i32 noundef %4) #0 {
  %6 = alloca ptr, align 8
  %7 = alloca ptr, align 8
  %8 = alloca ptr, align 8
  %9 = alloca i32, align 4
  %10 = alloca i32, align 4
  %11 = alloca i32, align 4
  %12 = alloca i32, align 4
  %13 = alloca ptr, align 8
  %14 = alloca ptr, align 8
  %15 = alloca ptr, align 8
  %16 = alloca i32, align 4
  %17 = alloca i32, align 4
  %18 = alloca i32, align 4
  store ptr %0, ptr %6, align 8
  store ptr %1, ptr %7, align 8
  store ptr %2, ptr %8, align 8
  store i32 %3, ptr %9, align 4
  store i32 %4, ptr %10, align 4
  call void @llvm.lifetime.start.p0(i64 4, ptr %11) #7
  %19 = load i32, ptr %9, align 4
  %20 = load i32, ptr %10, align 4
  %21 = add i32 %19, %20
  store i32 %21, ptr %11, align 4
  call void @llvm.lifetime.start.p0(i64 4, ptr %12) #7
  store i32 0, ptr %12, align 4
  br label %22

22:                                               ; preds = %80, %5
  %23 = load i32, ptr %9, align 4
  %24 = load i32, ptr %11, align 4
  %25 = icmp slt i32 %23, %24
  br i1 %25, label %26, label %87

26:                                               ; preds = %22
  call void @llvm.lifetime.start.p0(i64 8, ptr %13) #7
  call void @llvm.lifetime.start.p0(i64 8, ptr %14) #7
  call void @llvm.lifetime.start.p0(i64 8, ptr %15) #7
  call void @llvm.lifetime.start.p0(i64 4, ptr %16) #7
  call void @llvm.lifetime.start.p0(i64 4, ptr %17) #7
  %27 = load i32, ptr %9, align 4
  store i32 %27, ptr %17, align 4
  %28 = load ptr, ptr %8, align 8
  %29 = load ptr, ptr %6, align 8
  %30 = load i32, ptr %9, align 4
  %31 = load i32, ptr @ett_multipath, align 4
  %32 = load i32, ptr %12, align 4
  %33 = call ptr (ptr, ptr, i32, i32, i32, ptr, ptr, ...) @proto_tree_add_subtree_format(ptr noundef %28, ptr noundef %29, i32 noundef %30, i32 noundef -1, i32 noundef %31, ptr noundef %14, ptr noundef @.str.810, i32 noundef %32)
  store ptr %33, ptr %13, align 8
  %34 = load ptr, ptr %14, align 8
  %35 = load i32, ptr @hf_multipath_index, align 4
  %36 = load ptr, ptr %6, align 8
  %37 = load i32, ptr %9, align 4
  %38 = call ptr @proto_tree_add_item(ptr noundef %34, i32 noundef %35, ptr noundef %36, i32 noundef %37, i32 noundef 1, i32 noundef 0)
  %39 = load i32, ptr %9, align 4
  %40 = add i32 %39, 1
  store i32 %40, ptr %9, align 4
  %41 = load ptr, ptr %14, align 8
  %42 = load i32, ptr @hf_status, align 4
  %43 = load ptr, ptr %6, align 8
  %44 = load i32, ptr %9, align 4
  %45 = call ptr @proto_tree_add_item_ret_uint(ptr noundef %41, i32 noundef %42, ptr noundef %43, i32 noundef %44, i32 noundef 2, i32 noundef 0, ptr noundef %16)
  %46 = load i32, ptr %9, align 4
  %47 = add i32 %46, 2
  store i32 %47, ptr %9, align 4
  %48 = load i32, ptr %16, align 4
  %49 = icmp eq i32 %48, 0
  br i1 %49, label %50, label %80

50:                                               ; preds = %26
  call void @llvm.lifetime.start.p0(i64 4, ptr %18) #7
  %51 = load ptr, ptr %14, align 8
  %52 = load i32, ptr @hf_value_length, align 4
  %53 = load ptr, ptr %6, align 8
  %54 = load i32, ptr %9, align 4
  %55 = call ptr @proto_tree_add_item_ret_uint(ptr noundef %51, i32 noundef %52, ptr noundef %53, i32 noundef %54, i32 noundef 4, i32 noundef 0, ptr noundef %18)
  %56 = load i32, ptr %9, align 4
  %57 = add i32 %56, 4
  store i32 %57, ptr %9, align 4
  %58 = load ptr, ptr %14, align 8
  %59 = load i32, ptr @hf_value, align 4
  %60 = load ptr, ptr %6, align 8
  %61 = load i32, ptr %9, align 4
  %62 = load i32, ptr %18, align 4
  %63 = call ptr @proto_tree_add_item(ptr noundef %58, i32 noundef %59, ptr noundef %60, i32 noundef %61, i32 noundef %62, i32 noundef 0)
  %64 = load i32, ptr %18, align 4
  %65 = icmp ugt i32 %64, 0
  br i1 %65, label %66, label %76

66:                                               ; preds = %50
  %67 = load ptr, ptr %6, align 8
  %68 = load i32, ptr %9, align 4
  %69 = load i32, ptr %18, align 4
  %70 = call ptr @tvb_new_subset_length(ptr noundef %67, i32 noundef %68, i32 noundef %69)
  store ptr %70, ptr %15, align 8
  %71 = load ptr, ptr @json_handle, align 8
  %72 = load ptr, ptr %15, align 8
  %73 = load ptr, ptr %7, align 8
  %74 = load ptr, ptr %14, align 8
  %75 = call i32 @call_dissector(ptr noundef %71, ptr noundef %72, ptr noundef %73, ptr noundef %74)
  br label %76

76:                                               ; preds = %66, %50
  %77 = load i32, ptr %18, align 4
  %78 = load i32, ptr %9, align 4
  %79 = add i32 %78, %77
  store i32 %79, ptr %9, align 4
  call void @llvm.lifetime.end.p0(i64 4, ptr %18) #7
  br label %80

80:                                               ; preds = %76, %26
  %81 = load ptr, ptr %13, align 8
  %82 = load i32, ptr %9, align 4
  %83 = load i32, ptr %17, align 4
  %84 = sub i32 %82, %83
  call void @proto_item_set_len(ptr noundef %81, i32 noundef %84)
  %85 = load i32, ptr %12, align 4
  %86 = add i32 %85, 1
  store i32 %86, ptr %12, align 4
  call void @llvm.lifetime.end.p0(i64 4, ptr %17) #7
  call void @llvm.lifetime.end.p0(i64 4, ptr %16) #7
  call void @llvm.lifetime.end.p0(i64 8, ptr %15) #7
  call void @llvm.lifetime.end.p0(i64 8, ptr %14) #7
  call void @llvm.lifetime.end.p0(i64 8, ptr %13) #7
  br label %22, !llvm.loop !19

87:                                               ; preds = %22
  call void @llvm.lifetime.end.p0(i64 4, ptr %12) #7
  call void @llvm.lifetime.end.p0(i64 4, ptr %11) #7
  ret void
}