; Function Attrs: null_pointer_is_valid sspstrong uwtable
define internal fastcc void @dissect_multipath_mutation_response(ptr noundef %0, ptr noundef %1, ptr noundef %2, i32 noundef range(i32 24, 66070) %3, i32 noundef range(i32 1, 0) %4) unnamed_addr #0 {
  %6 = alloca ptr, align 8
  %7 = alloca i32, align 4
  %8 = alloca i32, align 4
  %9 = add i32 %4, %3
  %10 = icmp slt i32 %3, %9
  br i1 %10, label %.lr.ph, label %._crit_edge

.lr.ph:                                           ; preds = %5, %41
  %.031 = phi i32 [ %.1, %41 ], [ %3, %5 ]
  %.02830 = phi i32 [ %43, %41 ], [ 0, %5 ]
  call void @llvm.lifetime.start.p0(i64 8, ptr nonnull %6) #4
  call void @llvm.lifetime.start.p0(i64 4, ptr nonnull %7) #4
  %11 = load i32, ptr @ett_multipath, align 4
  %12 = call ptr (ptr, ptr, i32, i32, i32, ptr, ptr, ...) @proto_tree_add_subtree_format(ptr noundef %2, ptr noundef %0, i32 noundef %.031, i32 noundef -1, i32 noundef %11, ptr noundef nonnull %6, ptr noundef nonnull @.str.810, i32 noundef %.02830)
  %13 = load ptr, ptr %6, align 8
  %14 = load i32, ptr @hf_multipath_index, align 4
  %15 = call ptr @proto_tree_add_item(ptr noundef %13, i32 noundef %14, ptr noundef %0, i32 noundef %.031, i32 noundef 1, i32 noundef 0)
  %16 = add nsw i32 %.031, 1
  %17 = load ptr, ptr %6, align 8
  %18 = load i32, ptr @hf_status, align 4
  %19 = call ptr @proto_tree_add_item_ret_uint(ptr noundef %17, i32 noundef %18, ptr noundef %0, i32 noundef %16, i32 noundef 2, i32 noundef 0, ptr noundef nonnull %7)
  %20 = add i32 %.031, 3
  %21 = load i32, ptr %7, align 4
  %22 = icmp eq i32 %21, 0
  br i1 %22, label %23, label %41

23:                                               ; preds = %.lr.ph
  call void @llvm.lifetime.start.p0(i64 4, ptr nonnull %8) #4
  %24 = load ptr, ptr %6, align 8
  %25 = load i32, ptr @hf_value_length, align 4
  %26 = call ptr @proto_tree_add_item_ret_uint(ptr noundef %24, i32 noundef %25, ptr noundef %0, i32 noundef %20, i32 noundef 4, i32 noundef 0, ptr noundef nonnull %8)
  %27 = add i32 %.031, 7
  %28 = load ptr, ptr %6, align 8
  %29 = load i32, ptr @hf_value, align 4
  %30 = load i32, ptr %8, align 4
  %31 = call ptr @proto_tree_add_item(ptr noundef %28, i32 noundef %29, ptr noundef %0, i32 noundef %27, i32 noundef %30, i32 noundef 0)
  %32 = load i32, ptr %8, align 4
  %.not = icmp eq i32 %32, 0
  br i1 %.not, label %38, label %33

33:                                               ; preds = %23
  %34 = call ptr @tvb_new_subset_length(ptr noundef %0, i32 noundef %27, i32 noundef %32)
  %35 = load ptr, ptr @json_handle, align 8
  %36 = load ptr, ptr %6, align 8
  %37 = call i32 @call_dissector(ptr noundef %35, ptr noundef %34, ptr noundef %1, ptr noundef %36)
  %.pre = load i32, ptr %8, align 4
  br label %38

38:                                               ; preds = %33, %23
  %39 = phi i32 [ %.pre, %33 ], [ 0, %23 ]
  %40 = add i32 %39, %27
  call void @llvm.lifetime.end.p0(i64 4, ptr nonnull %8) #4
  br label %41

41:                                               ; preds = %38, %.lr.ph
  %.1 = phi i32 [ %40, %38 ], [ %20, %.lr.ph ]
  %42 = sub i32 %.1, %.031
  call void @proto_item_set_len(ptr noundef %12, i32 noundef %42)
  %43 = add i32 %.02830, 1
  call void @llvm.lifetime.end.p0(i64 4, ptr nonnull %7) #4
  call void @llvm.lifetime.end.p0(i64 8, ptr nonnull %6) #4
  %44 = icmp slt i32 %.1, %9
  br i1 %44, label %.lr.ph, label %._crit_edge, !llvm.loop !19

._crit_edge:                                      ; preds = %41, %5
  ret void
}